target datalayout = "e-m:e-p270:32:32-p271:32:32-p272:64:64-i64:64-i128:128-f80:128-n8:16:32:64-S128"
target triple = "x86_64-pc-linux-gnu"

%struct._zval_struct = type { %union._zend_value, %union.anon, %union.anon.2 }
%union._zend_value = type { i64 }
%union.anon = type { i32 }
%union.anon.2 = type { i32 }
%struct._zend_refcounted_h = type { i32, %union.anon.3 }
%union.anon.3 = type { i32 }
%struct._dom_object = type { ptr, ptr, ptr, %struct._zend_object }
%struct._zend_object = type { %struct._zend_refcounted_h, i32, i32, ptr, ptr, ptr, [1 x %struct._zval_struct] }
%struct._php_libxml_ref_obj = type { ptr, ptr, %struct.php_libxml_cache_tag, ptr, ptr, i32, i16 }
%struct.php_libxml_cache_tag = type { i64 }
%struct._xmlOutputBuffer = type { ptr, ptr, ptr, ptr, ptr, ptr, i32, i32 }

; Function Attrs: alwaysinline nounwind uwtable
define internal ptr @php_dom_get_private_data(ptr noundef %0) #3 {
  %2 = alloca ptr, align 8
  store ptr %0, ptr %2, align 8, !tbaa !69
  %3 = load ptr, ptr %2, align 8, !tbaa !69
  %4 = getelementptr inbounds nuw %struct._dom_object, ptr %3, i32 0, i32 1
  %5 = load ptr, ptr %4, align 8, !tbaa !71
  %6 = icmp ne ptr %5, null
  call void @llvm.assume(i1 %6)
  %7 = load ptr, ptr %2, align 8, !tbaa !69
  %8 = getelementptr inbounds nuw %struct._dom_object, ptr %7, i32 0, i32 1
  %9 = load ptr, ptr %8, align 8, !tbaa !71
  %10 = getelementptr inbounds nuw %struct._php_libxml_ref_obj, ptr %9, i32 0, i32 3
  %11 = load ptr, ptr %10, align 8, !tbaa !76
  ret ptr %11
}

; Function Attrs: nounwind uwtable
define internal ptr @get_private_data_from_node(ptr noundef %0) #0 {
  %2 = alloca ptr, align 8
  %3 = alloca ptr, align 8
  store ptr %0, ptr %2, align 8, !tbaa !19
  call void @llvm.lifetime.start.p0(i64 8, ptr %3) #14
  %4 = load ptr, ptr %2, align 8, !tbaa !19
  %5 = call ptr @php_dom_object_get_data(ptr noundef %4)
  store ptr %5, ptr %3, align 8, !tbaa !69
  %6 = load ptr, ptr %3, align 8, !tbaa !69
  %7 = icmp ne ptr %6, null
  br i1 %7, label %8, label %11

8:                                                ; preds = %1
  %9 = load ptr, ptr %3, align 8, !tbaa !69
  %10 = call ptr @php_dom_get_private_data(ptr noundef %9)
  br label %12

11:                                               ; preds = %1
  br label %12

12:                                               ; preds = %11, %8
  %13 = phi ptr [ %10, %8 ], [ null, %11 ]
  call void @llvm.lifetime.end.p0(i64 8, ptr %3) #14
  ret ptr %13
}

; Function Attrs: nounwind uwtable
define hidden i64 @php_new_dom_dump_node_to_file(ptr noundef %0, ptr noundef %1, ptr noundef %2, i1 noundef zeroext %3, ptr noundef %4) #0 {
  %6 = alloca i64, align 8
  %7 = alloca ptr, align 8
  %8 = alloca ptr, align 8
  %9 = alloca ptr, align 8
  %10 = alloca i8, align 1
  %11 = alloca ptr, align 8
  %12 = alloca ptr, align 8
  %13 = alloca ptr, align 8
  %14 = alloca i32, align 4
  %15 = alloca ptr, align 8
  %16 = alloca i32, align 4
  %17 = alloca ptr, align 8
  %18 = alloca i64, align 8
  store ptr %0, ptr %7, align 8, !tbaa !31
  store ptr %1, ptr %8, align 8, !tbaa !9
  store ptr %2, ptr %9, align 8, !tbaa !19
  %19 = zext i1 %3 to i8
  store i8 %19, ptr %10, align 1, !tbaa !89
  store ptr %4, ptr %11, align 8, !tbaa !31
  call void @llvm.lifetime.start.p0(i64 8, ptr %12) #14
  %20 = load ptr, ptr %11, align 8, !tbaa !31
  %21 = call ptr @xmlFindCharEncodingHandler(ptr noundef %20)
  store ptr %21, ptr %12, align 8, !tbaa !65
  call void @llvm.lifetime.start.p0(i64 8, ptr %13) #14
  %22 = load ptr, ptr %7, align 8, !tbaa !31
  %23 = load ptr, ptr %12, align 8, !tbaa !65
  %24 = call ptr @xmlOutputBufferCreateFilename(ptr noundef %22, ptr noundef %23, i32 noundef 0)
  store ptr %24, ptr %13, align 8, !tbaa !90
  %25 = load ptr, ptr %13, align 8, !tbaa !90
  %26 = icmp ne ptr %25, null
  br i1 %26, label %30, label %27

27:                                               ; preds = %5
  %28 = load ptr, ptr %12, align 8, !tbaa !65
  %29 = call i32 @xmlCharEncCloseFunc(ptr noundef %28)
  store i64 -1, ptr %6, align 8
  store i32 1, ptr %14, align 4
  br label %77

30:                                               ; preds = %5
  call void @llvm.lifetime.start.p0(i64 8, ptr %15) #14
  %31 = load ptr, ptr %13, align 8, !tbaa !90
  %32 = getelementptr inbounds nuw %struct._xmlOutputBuffer, ptr %31, i32 0, i32 0
  %33 = load ptr, ptr %32, align 8, !tbaa !92
  store ptr %33, ptr %15, align 8, !tbaa !95
  call void @llvm.lifetime.start.p0(i64 4, ptr %16) #14
  store i32 -1, ptr %16, align 4, !tbaa !86
  call void @llvm.lifetime.start.p0(i64 8, ptr %17) #14
  %34 = load ptr, ptr %13, align 8, !tbaa !90
  %35 = getelementptr inbounds nuw %struct._xmlOutputBuffer, ptr %34, i32 0, i32 1
  %36 = load ptr, ptr %35, align 8, !tbaa !97
  %37 = load ptr, ptr %15, align 8, !tbaa !95
  %38 = load ptr, ptr %11, align 8, !tbaa !31
  %39 = call ptr @xmlSaveToIO(ptr noundef %36, ptr noundef null, ptr noundef %37, ptr noundef %38, i32 noundef 32)
  store ptr %39, ptr %17, align 8, !tbaa !98
  %40 = load ptr, ptr %17, align 8, !tbaa !98
  %41 = icmp ne ptr %40, null
  %42 = xor i1 %41, true
  %43 = xor i1 %42, true
  %44 = zext i1 %43 to i32
  %45 = sext i32 %44 to i64
  %46 = call i64 @llvm.expect.i64(i64 %45, i64 1)
  %47 = icmp ne i64 %46, 0
  br i1 %47, label %48, label %63

48:                                               ; preds = %30
  %49 = load ptr, ptr %17, align 8, !tbaa !98
  %50 = load ptr, ptr %13, align 8, !tbaa !90
  %51 = load ptr, ptr %9, align 8, !tbaa !19
  %52 = load i8, ptr %10, align 1, !tbaa !89, !range !100, !noundef !101
  %53 = trunc i8 %52 to i1
  %54 = load ptr, ptr %9, align 8, !tbaa !19
  %55 = call ptr @get_private_data_from_node(ptr noundef %54)
  %56 = call i32 @dom_xml_serialize(ptr noundef %49, ptr noundef %50, ptr noundef %51, i1 noundef zeroext %53, i1 noundef zeroext false, ptr noundef %55)
  store i32 %56, ptr %16, align 4, !tbaa !86
  %57 = load ptr, ptr %13, align 8, !tbaa !90
  %58 = call i32 @xmlOutputBufferFlush(ptr noundef %57)
  %59 = load i32, ptr %16, align 4, !tbaa !86
  %60 = or i32 %59, %58
  store i32 %60, ptr %16, align 4, !tbaa !86
  %61 = load ptr, ptr %17, align 8, !tbaa !98
  %62 = call i32 @xmlSaveClose(ptr noundef %61)
  br label %63

63:                                               ; preds = %48, %30
  call void @llvm.lifetime.start.p0(i64 8, ptr %18) #14
  %64 = load ptr, ptr %15, align 8, !tbaa !95
  %65 = call i64 @_php_stream_tell(ptr noundef %64)
  store i64 %65, ptr %18, align 8, !tbaa !32
  %66 = load ptr, ptr %13, align 8, !tbaa !90
  %67 = call i32 @xmlOutputBufferClose(ptr noundef %66)
  %68 = load i32, ptr %16, align 4, !tbaa !86
  %69 = icmp slt i32 %68, 0
  br i1 %69, label %70, label %73

70:                                               ; preds = %63
  %71 = load i32, ptr %16, align 4, !tbaa !86
  %72 = sext i32 %71 to i64
  br label %75

73:                                               ; preds = %63
  %74 = load i64, ptr %18, align 8, !tbaa !32
  br label %75

75:                                               ; preds = %73, %70
  %76 = phi i64 [ %72, %70 ], [ %74, %73 ]
  store i64 %76, ptr %6, align 8
  store i32 1, ptr %14, align 4
  call void @llvm.lifetime.end.p0(i64 8, ptr %18) #14
  call void @llvm.lifetime.end.p0(i64 8, ptr %17) #14
  call void @llvm.lifetime.end.p0(i64 4, ptr %16) #14
  call void @llvm.lifetime.end.p0(i64 8, ptr %15) #14
  br label %77

77:                                               ; preds = %75, %27
  call void @llvm.lifetime.end.p0(i64 8, ptr %13) #14
  call void @llvm.lifetime.end.p0(i64 8, ptr %12) #14
  %78 = load i64, ptr %6, align 8
  ret i64 %78
}