; Function Attrs: nounwind uwtable
define hidden i64 @php_new_dom_dump_node_to_file(ptr noundef %0, ptr readnone captures(none) %1, ptr noundef %2, i1 noundef zeroext %3, ptr noundef %4) #0 {
  %6 = tail call ptr @xmlFindCharEncodingHandler(ptr noundef %4) #12
  %7 = tail call ptr @xmlOutputBufferCreateFilename(ptr noundef %0, ptr noundef %6, i32 noundef 0) #12
  %.not = icmp eq ptr %7, null
  br i1 %.not, label %8, label %10

8:                                                ; preds = %5
  %9 = tail call i32 @xmlCharEncCloseFunc(ptr noundef %6) #12
  br label %33

10:                                               ; preds = %5
  %11 = load ptr, ptr %7, align 8, !tbaa !76
  %12 = getelementptr inbounds nuw i8, ptr %7, i64 8
  %13 = load ptr, ptr %12, align 8, !tbaa !80
  %14 = tail call ptr @xmlSaveToIO(ptr noundef %13, ptr noundef null, ptr noundef %11, ptr noundef %4, i32 noundef 32) #12
  %.not26 = icmp eq ptr %14, null
  br i1 %.not26, label %28, label %15, !prof !59

15:                                               ; preds = %10
  %16 = tail call ptr @php_dom_object_get_data(ptr noundef %2) #12
  %.not.i = icmp eq ptr %16, null
  br i1 %.not.i, label %get_private_data_from_node.exit, label %17

17:                                               ; preds = %15
  %18 = getelementptr inbounds nuw i8, ptr %16, i64 8
  %19 = load ptr, ptr %18, align 8, !tbaa !62, !nonnull !81, !noundef !81
  %20 = getelementptr inbounds nuw i8, ptr %19, i64 24
  %21 = load ptr, ptr %20, align 8, !tbaa !73
  br label %get_private_data_from_node.exit

get_private_data_from_node.exit:                  ; preds = %15, %17
  %22 = phi ptr [ %21, %17 ], [ null, %15 ]
  %23 = tail call i32 @dom_xml_serialize(ptr noundef nonnull %14, ptr noundef nonnull %7, ptr noundef %2, i1 noundef zeroext %3, i1 noundef zeroext false, ptr noundef %22) #12
  %24 = tail call i32 @xmlOutputBufferFlush(ptr noundef nonnull %7) #12
  %25 = or i32 %24, %23
  %26 = tail call i32 @xmlSaveClose(ptr noundef nonnull %14) #12
  %27 = freeze i32 %25
  br label %28

28:                                               ; preds = %get_private_data_from_node.exit, %10
  %.023 = phi i32 [ %27, %get_private_data_from_node.exit ], [ -1, %10 ]
  %29 = tail call i64 @_php_stream_tell(ptr noundef %11) #12
  %30 = tail call i32 @xmlOutputBufferClose(ptr noundef nonnull %7) #12
  %31 = icmp slt i32 %.023, 0
  %32 = sext i32 %.023 to i64
  %spec.select = select i1 %31, i64 %32, i64 %29
  br label %33

33:                                               ; preds = %28, %8
  %.0 = phi i64 [ -1, %8 ], [ %spec.select, %28 ]
  ret i64 %.0
}